; Function Attrs: mustprogress nounwind uwtable
define internal void @"_ZNSt17_Function_handlerIFvPKcEZ4mainE4$_37E9_M_invokeERKSt9_Any_dataOS1_"(ptr nocapture noundef nonnull readonly align 8 dereferenceable(16) %0, ptr nocapture noundef nonnull readonly align 8 dereferenceable(8) %1) #10 align 2 {
  %3 = alloca ptr, align 8
  %.val = load ptr, ptr %1, align 8
  call void @llvm.lifetime.start.p0(i64 8, ptr nonnull %3)
  %4 = call i64 @strtoul(ptr noundef %.val, ptr noundef nonnull %3, i32 noundef 10) #34
  %5 = load ptr, ptr %3, align 8
  %6 = load i8, ptr %5, align 1
  %.not.i.i.i.i = icmp eq i8 %6, 0
  br i1 %.not.i.i.i.i, label %"_ZSt10__invoke_rIvRZ4mainE4$_37JPKcEENSt9enable_ifIX16is_invocable_r_vIT_T0_DpT1_EES5_E4typeEOS6_DpOS7_.exit", label %7

7:                                                ; preds = %2
  tail call fastcc void @_ZL4helpi(i32 noundef 1)
  unreachable

"_ZSt10__invoke_rIvRZ4mainE4$_37JPKcEENSt9enable_ifIX16is_invocable_r_vIT_T0_DpT1_EES5_E4typeEOS6_DpOS7_.exit": ; preds = %2
  call void @llvm.lifetime.end.p0(i64 8, ptr nonnull %3)
  %8 = trunc i64 %4 to i32
  %9 = load ptr, ptr %0, align 8
  store i32 %8, ptr %9, align 4
  ret void
}